target datalayout = "e-m:e-p270:32:32-p271:32:32-p272:64:64-i64:64-i128:128-f80:128-n8:16:32:64-S128"
target triple = "x86_64-pc-linux-gnu"

%struct.LeafList = type { ptr, ptr }
%struct.Branch = type { %struct.Rect, ptr }
%struct.Rect = type { [4 x i32] }
%struct.Node = type { i32, i32, [64 x %struct.Branch] }

; Function Attrs: nounwind uwtable
define ptr @RTreeNewLeafList(ptr noundef %0) #0 {
  %2 = alloca ptr, align 8
  %3 = alloca ptr, align 8
  store ptr %0, ptr %2, align 8, !tbaa !3
  call void @llvm.lifetime.start.p0(i64 8, ptr %3) #6
  %4 = call noalias ptr @calloc(i64 noundef 1, i64 noundef 16) #7
  store ptr %4, ptr %3, align 8, !tbaa !8
  %5 = icmp ne ptr %4, null
  br i1 %5, label %6, label %12

6:                                                ; preds = %1
  %7 = load ptr, ptr %2, align 8, !tbaa !3
  %8 = load ptr, ptr %3, align 8, !tbaa !8
  %9 = getelementptr inbounds nuw %struct.LeafList, ptr %8, i32 0, i32 1
  store ptr %7, ptr %9, align 8, !tbaa !10
  %10 = load ptr, ptr %3, align 8, !tbaa !8
  %11 = getelementptr inbounds nuw %struct.LeafList, ptr %10, i32 0, i32 0
  store ptr null, ptr %11, align 8, !tbaa !12
  br label %12

12:                                               ; preds = %6, %1
  %13 = load ptr, ptr %3, align 8, !tbaa !8
  call void @llvm.lifetime.end.p0(i64 8, ptr %3) #6
  ret ptr %13
}

; Function Attrs: nounwind uwtable
define ptr @RTreeLeafListAdd(ptr noundef %0, ptr noundef %1) #0 {
  %3 = alloca ptr, align 8
  %4 = alloca ptr, align 8
  %5 = alloca ptr, align 8
  %6 = alloca ptr, align 8
  store ptr %0, ptr %4, align 8, !tbaa !8
  store ptr %1, ptr %5, align 8, !tbaa !3
  %7 = load ptr, ptr %5, align 8, !tbaa !3
  %8 = icmp ne ptr %7, null
  br i1 %8, label %11, label %9

9:                                                ; preds = %2
  %10 = load ptr, ptr %4, align 8, !tbaa !8
  store ptr %10, ptr %3, align 8
  br label %18

11:                                               ; preds = %2
  call void @llvm.lifetime.start.p0(i64 8, ptr %6) #6
  %12 = load ptr, ptr %5, align 8, !tbaa !3
  %13 = call ptr @RTreeNewLeafList(ptr noundef %12)
  store ptr %13, ptr %6, align 8, !tbaa !8
  %14 = load ptr, ptr %4, align 8, !tbaa !8
  %15 = load ptr, ptr %6, align 8, !tbaa !8
  %16 = getelementptr inbounds nuw %struct.LeafList, ptr %15, i32 0, i32 0
  store ptr %14, ptr %16, align 8, !tbaa !12
  %17 = load ptr, ptr %6, align 8, !tbaa !8
  store ptr %17, ptr %3, align 8
  call void @llvm.lifetime.end.p0(i64 8, ptr %6) #6
  br label %18

18:                                               ; preds = %11, %9
  %19 = load ptr, ptr %3, align 8
  ret ptr %19
}

; Function Attrs: nounwind uwtable
define ptr @RTreeSearch(ptr noundef %0, ptr noundef %1, ptr noundef %2) #0 {
  %4 = alloca ptr, align 8
  %5 = alloca ptr, align 8
  %6 = alloca ptr, align 8
  %7 = alloca ptr, align 8
  %8 = alloca i64, align 8
  %9 = alloca ptr, align 8
  %10 = alloca ptr, align 8
  %11 = alloca i64, align 8
  store ptr %0, ptr %4, align 8, !tbaa !15
  store ptr %1, ptr %5, align 8, !tbaa !23
  store ptr %2, ptr %6, align 8, !tbaa !32
  call void @llvm.lifetime.start.p0(i64 8, ptr %7) #6
  store ptr null, ptr %7, align 8, !tbaa !8
  %12 = load ptr, ptr %5, align 8, !tbaa !23
  %13 = getelementptr inbounds nuw %struct.Node, ptr %12, i32 0, i32 1
  %14 = load i32, ptr %13, align 4, !tbaa !24
  %15 = icmp sgt i32 %14, 0
  br i1 %15, label %16, label %72

16:                                               ; preds = %3
  call void @llvm.lifetime.start.p0(i64 8, ptr %8) #6
  store i64 0, ptr %8, align 8, !tbaa !34
  br label %17

17:                                               ; preds = %68, %16
  %18 = load i64, ptr %8, align 8, !tbaa !34
  %19 = icmp ult i64 %18, 64
  br i1 %19, label %21, label %20

20:                                               ; preds = %17
  call void @llvm.lifetime.end.p0(i64 8, ptr %8) #6
  br label %71

21:                                               ; preds = %17
  %22 = load ptr, ptr %5, align 8, !tbaa !23
  %23 = getelementptr inbounds nuw %struct.Node, ptr %22, i32 0, i32 2
  %24 = load i64, ptr %8, align 8, !tbaa !34
  %25 = getelementptr inbounds nuw [64 x %struct.Branch], ptr %23, i64 0, i64 %24
  %26 = getelementptr inbounds nuw %struct.Branch, ptr %25, i32 0, i32 1
  %27 = load ptr, ptr %26, align 8, !tbaa !28
  %28 = icmp ne ptr %27, null
  br i1 %28, label %29, label %67

29:                                               ; preds = %21
  %30 = load ptr, ptr %6, align 8, !tbaa !32
  %31 = load ptr, ptr %5, align 8, !tbaa !23
  %32 = getelementptr inbounds nuw %struct.Node, ptr %31, i32 0, i32 2
  %33 = load i64, ptr %8, align 8, !tbaa !34
  %34 = getelementptr inbounds nuw [64 x %struct.Branch], ptr %32, i64 0, i64 %33
  %35 = getelementptr inbounds nuw %struct.Branch, ptr %34, i32 0, i32 0
  %36 = call zeroext i1 @Overlap(ptr noundef %30, ptr noundef %35)
  br i1 %36, label %37, label %67

37:                                               ; preds = %29
  call void @llvm.lifetime.start.p0(i64 8, ptr %9) #6
  %38 = load ptr, ptr %4, align 8, !tbaa !15
  %39 = load ptr, ptr %5, align 8, !tbaa !23
  %40 = getelementptr inbounds nuw %struct.Node, ptr %39, i32 0, i32 2
  %41 = load i64, ptr %8, align 8, !tbaa !34
  %42 = getelementptr inbounds nuw [64 x %struct.Branch], ptr %40, i64 0, i64 %41
  %43 = getelementptr inbounds nuw %struct.Branch, ptr %42, i32 0, i32 1
  %44 = load ptr, ptr %43, align 8, !tbaa !28
  %45 = load ptr, ptr %6, align 8, !tbaa !32
  %46 = call ptr @RTreeSearch(ptr noundef %38, ptr noundef %44, ptr noundef %45)
  store ptr %46, ptr %9, align 8, !tbaa !8
  %47 = load ptr, ptr %7, align 8, !tbaa !8
  %48 = icmp ne ptr %47, null
  br i1 %48, label %49, label %64

49:                                               ; preds = %37
  call void @llvm.lifetime.start.p0(i64 8, ptr %10) #6
  %50 = load ptr, ptr %7, align 8, !tbaa !8
  store ptr %50, ptr %10, align 8, !tbaa !8
  br label %51

51:                                               ; preds = %56, %49
  %52 = load ptr, ptr %10, align 8, !tbaa !8
  %53 = getelementptr inbounds nuw %struct.LeafList, ptr %52, i32 0, i32 0
  %54 = load ptr, ptr %53, align 8, !tbaa !12
  %55 = icmp ne ptr %54, null
  br i1 %55, label %56, label %60

56:                                               ; preds = %51
  %57 = load ptr, ptr %10, align 8, !tbaa !8
  %58 = getelementptr inbounds nuw %struct.LeafList, ptr %57, i32 0, i32 0
  %59 = load ptr, ptr %58, align 8, !tbaa !12
  store ptr %59, ptr %10, align 8, !tbaa !8
  br label %51, !llvm.loop !35

60:                                               ; preds = %51
  %61 = load ptr, ptr %9, align 8, !tbaa !8
  %62 = load ptr, ptr %10, align 8, !tbaa !8
  %63 = getelementptr inbounds nuw %struct.LeafList, ptr %62, i32 0, i32 0
  store ptr %61, ptr %63, align 8, !tbaa !12
  call void @llvm.lifetime.end.p0(i64 8, ptr %10) #6
  br label %66

64:                                               ; preds = %37
  %65 = load ptr, ptr %9, align 8, !tbaa !8
  store ptr %65, ptr %7, align 8, !tbaa !8
  br label %66

66:                                               ; preds = %64, %60
  call void @llvm.lifetime.end.p0(i64 8, ptr %9) #6
  br label %67

67:                                               ; preds = %66, %29, %21
  br label %68

68:                                               ; preds = %67
  %69 = load i64, ptr %8, align 8, !tbaa !34
  %70 = add i64 %69, 1
  store i64 %70, ptr %8, align 8, !tbaa !34
  br label %17, !llvm.loop !36

71:                                               ; preds = %20
  br label %105

72:                                               ; preds = %3
  call void @llvm.lifetime.start.p0(i64 8, ptr %11) #6
  store i64 0, ptr %11, align 8, !tbaa !34
  br label %73

73:                                               ; preds = %101, %72
  %74 = load i64, ptr %11, align 8, !tbaa !34
  %75 = icmp ult i64 %74, 64
  br i1 %75, label %77, label %76

76:                                               ; preds = %73
  call void @llvm.lifetime.end.p0(i64 8, ptr %11) #6
  br label %104

77:                                               ; preds = %73
  %78 = load ptr, ptr %5, align 8, !tbaa !23
  %79 = getelementptr inbounds nuw %struct.Node, ptr %78, i32 0, i32 2
  %80 = load i64, ptr %11, align 8, !tbaa !34
  %81 = getelementptr inbounds nuw [64 x %struct.Branch], ptr %79, i64 0, i64 %80
  %82 = getelementptr inbounds nuw %struct.Branch, ptr %81, i32 0, i32 1
  %83 = load ptr, ptr %82, align 8, !tbaa !28
  %84 = icmp ne ptr %83, null
  br i1 %84, label %85, label %100

85:                                               ; preds = %77
  %86 = load ptr, ptr %6, align 8, !tbaa !32
  %87 = load ptr, ptr %5, align 8, !tbaa !23
  %88 = getelementptr inbounds nuw %struct.Node, ptr %87, i32 0, i32 2
  %89 = load i64, ptr %11, align 8, !tbaa !34
  %90 = getelementptr inbounds nuw [64 x %struct.Branch], ptr %88, i64 0, i64 %89
  %91 = getelementptr inbounds nuw %struct.Branch, ptr %90, i32 0, i32 0
  %92 = call zeroext i1 @Overlap(ptr noundef %86, ptr noundef %91)
  br i1 %92, label %93, label %100

93:                                               ; preds = %85
  %94 = load ptr, ptr %7, align 8, !tbaa !8
  %95 = load ptr, ptr %5, align 8, !tbaa !23
  %96 = getelementptr inbounds nuw %struct.Node, ptr %95, i32 0, i32 2
  %97 = load i64, ptr %11, align 8, !tbaa !34
  %98 = getelementptr inbounds nuw [64 x %struct.Branch], ptr %96, i64 0, i64 %97
  %99 = call ptr @RTreeLeafListAdd(ptr noundef %94, ptr noundef %98)
  store ptr %99, ptr %7, align 8, !tbaa !8
  br label %100

100:                                              ; preds = %93, %85, %77
  br label %101

101:                                              ; preds = %100
  %102 = load i64, ptr %11, align 8, !tbaa !34
  %103 = add i64 %102, 1
  store i64 %103, ptr %11, align 8, !tbaa !34
  br label %73, !llvm.loop !37

104:                                              ; preds = %76
  br label %105

105:                                              ; preds = %104, %71
  %106 = load ptr, ptr %7, align 8, !tbaa !8
  call void @llvm.lifetime.end.p0(i64 8, ptr %7) #6
  ret ptr %106
}