; Function Attrs: nounwind uwtable
define ptr @RTreeSearch(ptr noundef readnone captures(none) %0, ptr noundef %1, ptr noundef %2) local_unnamed_addr #3 {
  %4 = getelementptr inbounds nuw i8, ptr %1, i64 4
  %5 = load i32, ptr %4, align 4, !tbaa !13
  %6 = icmp sgt i32 %5, 0
  %7 = getelementptr inbounds nuw i8, ptr %1, i64 8
  br i1 %6, label %.preheader36, label %.preheader37

.preheader36:                                     ; preds = %3, %18
  %.03042 = phi ptr [ %.2, %18 ], [ null, %3 ]
  %.03141 = phi i64 [ %19, %18 ], [ 0, %3 ]
  %8 = getelementptr inbounds nuw [64 x %struct.Branch], ptr %7, i64 0, i64 %.03141
  %9 = getelementptr inbounds nuw i8, ptr %8, i64 16
  %10 = load ptr, ptr %9, align 8, !tbaa !22
  %.not33 = icmp eq ptr %10, null
  br i1 %.not33, label %18, label %11

11:                                               ; preds = %.preheader36
  %12 = tail call zeroext i1 @Overlap(ptr noundef %2, ptr noundef nonnull %8) #8
  br i1 %12, label %13, label %18

13:                                               ; preds = %11
  %14 = load ptr, ptr %9, align 8, !tbaa !22
  %15 = tail call ptr @RTreeSearch(ptr noundef %0, ptr noundef %14, ptr noundef %2)
  %.not34 = icmp eq ptr %.03042, null
  br i1 %.not34, label %18, label %.preheader

.preheader:                                       ; preds = %13, %.preheader
  %.029 = phi ptr [ %16, %.preheader ], [ %.03042, %13 ]
  %16 = load ptr, ptr %.029, align 8, !tbaa !10
  %.not35 = icmp eq ptr %16, null
  br i1 %.not35, label %17, label %.preheader, !llvm.loop !26

17:                                               ; preds = %.preheader
  store ptr %15, ptr %.029, align 8, !tbaa !10
  br label %18

18:                                               ; preds = %17, %13, %.preheader36, %11
  %.2 = phi ptr [ %.03042, %11 ], [ %.03042, %.preheader36 ], [ %.03042, %17 ], [ %15, %13 ]
  %19 = add nuw nsw i64 %.03141, 1
  %exitcond44.not = icmp eq i64 %19, 64
  br i1 %exitcond44.not, label %.loopexit, label %.preheader36, !llvm.loop !27

.preheader37:                                     ; preds = %3, %29
  %.040 = phi i64 [ %30, %29 ], [ 0, %3 ]
  %.439 = phi ptr [ %.5, %29 ], [ null, %3 ]
  %20 = getelementptr inbounds nuw [64 x %struct.Branch], ptr %7, i64 0, i64 %.040
  %21 = getelementptr inbounds nuw i8, ptr %20, i64 16
  %22 = load ptr, ptr %21, align 8, !tbaa !22
  %.not = icmp eq ptr %22, null
  br i1 %.not, label %29, label %23

23:                                               ; preds = %.preheader37
  %24 = tail call zeroext i1 @Overlap(ptr noundef %2, ptr noundef nonnull %20) #8
  br i1 %24, label %25, label %29

25:                                               ; preds = %23
  %26 = tail call noalias dereferenceable_or_null(16) ptr @calloc(i64 noundef 1, i64 noundef 16) #7
  %.not.i.i = icmp eq ptr %26, null
  br i1 %.not.i.i, label %RTreeLeafListAdd.exit, label %27

27:                                               ; preds = %25
  %28 = getelementptr inbounds nuw i8, ptr %26, i64 8
  store ptr %20, ptr %28, align 8, !tbaa !3
  br label %RTreeLeafListAdd.exit

RTreeLeafListAdd.exit:                            ; preds = %25, %27
  store ptr %.439, ptr %26, align 8, !tbaa !10
  br label %29

29:                                               ; preds = %.preheader37, %23, %RTreeLeafListAdd.exit
  %.5 = phi ptr [ %26, %RTreeLeafListAdd.exit ], [ %.439, %23 ], [ %.439, %.preheader37 ]
  %30 = add nuw nsw i64 %.040, 1
  %exitcond.not = icmp eq i64 %30, 64
  br i1 %exitcond.not, label %.loopexit, label %.preheader37, !llvm.loop !28

.loopexit:                                        ; preds = %29, %18
  %.3 = phi ptr [ %.2, %18 ], [ %.5, %29 ]
  ret ptr %.3
}